; Function Attrs: nounwind uwtable
define dso_local { i64, ptr } @jv_invalid_get_msg(i64 %0, ptr %1) local_unnamed_addr #2 {
  %3 = and i64 %0, 255
  %4 = icmp eq i64 %3, 128
  br i1 %4, label %5, label %jv_copy.exit

5:                                                ; preds = %2
  %6 = getelementptr inbounds nuw i8, ptr %1, i64 8
  %7 = load i64, ptr %6, align 8
  %8 = getelementptr inbounds nuw i8, ptr %1, i64 16
  %9 = load ptr, ptr %8, align 8
  %10 = and i64 %7, 128
  %.not.i = icmp eq i64 %10, 0
  br i1 %.not.i, label %jv_copy.exit, label %11

11:                                               ; preds = %5
  %12 = load i32, ptr %9, align 4, !tbaa !9
  %13 = add nsw i32 %12, 1
  store i32 %13, ptr %9, align 4, !tbaa !9
  br label %jv_copy.exit

jv_copy.exit:                                     ; preds = %11, %5, %2
  %.sroa.07.0 = phi i64 [ 1, %2 ], [ %7, %5 ], [ %7, %11 ]
  %.sroa.3.0 = phi ptr [ null, %2 ], [ %9, %5 ], [ %9, %11 ]
  tail call void @jv_free(i64 %0, ptr %1)
  %.fca.0.insert = insertvalue { i64, ptr } poison, i64 %.sroa.07.0, 0
  %.fca.1.insert = insertvalue { i64, ptr } %.fca.0.insert, ptr %.sroa.3.0, 1
  ret { i64, ptr } %.fca.1.insert
}